TN:
SF:/home/egor/CppSolyanka/src/client/client.cpp
FN:9,_ZN4core6clientC2Eb
FN:11,_ZN4core6client14read_hello_msgEv
FN:16,_ZN4core6client13read_responseB5cxx11Ev
FN:40,_ZN4core6client5writeENSt7__cxx1112basic_stringIcSt11char_traitsIcESaIcEEE
FN:53,_ZN4core6client14handler_resultERKNS_7command4typeERKNS_3msgE
FN:88,_ZN4core6client9executingEv
FN:120,_ZN4core6client7connectEv
FN:126,_ZN4core6client5startEv
FN:133,_ZN4core6client4stopEv
FNDA:23,_ZN4core6client7connectEv
FNDA:23,_ZN4core6client14read_hello_msgEv
FNDA:50,_ZN4core6client14handler_resultERKNS_7command4typeERKNS_3msgE
FNDA:73,_ZN4core6client13read_responseB5cxx11Ev
FNDA:23,_ZN4core6client4stopEv
FNDA:23,_ZN4core6client9executingEv
FNDA:73,_ZN4core6client5writeENSt7__cxx1112basic_stringIcSt11char_traitsIcESaIcEEE
FNDA:23,_ZN4core6client5startEv
FNDA:23,_ZN4core6clientC2Eb
FNF:9
FNH:9
DA:9,23
DA:11,23
DA:13,23
DA:14,23
DA:16,73
DA:21,73
DA:23,73
DA:24,70
DA:26,73
DA:27,73
DA:29,0
DA:31,0
DA:32,0
DA:33,0
DA:34,0
DA:36,0
DA:37,0
DA:38,0
DA:40,73
DA:42,73
DA:44,73
DA:45,0
DA:47,73
DA:49,73
DA:50,73
DA:51,73
DA:53,50
DA:55,50
DA:57,50
DA:59,22
DA:60,22
DA:61,22
DA:62,22
DA:63,28
DA:65,0
DA:66,0
DA:67,0
DA:68,0
DA:70,0
DA:71,0
DA:73,0
DA:75,0
DA:76,0
DA:77,0
DA:79,0
DA:82,28
DA:83,28
DA:84,28
DA:85,28
DA:86,50
DA:88,23
DA:90,23
DA:91,23
DA:92,23
DA:93,23
DA:97,75
DA:99,75
DA:100,2
DA:102,73
DA:104,73
DA:105,23
DA:107,73
DA:109,73
DA:110,73
DA:111,96
DA:113,50
DA:114,50
DA:116,50
DA:117,148
DA:118,69
DA:120,23
DA:122,23
DA:123,23
DA:124,23
DA:126,23
DA:128,23
DA:129,23
DA:130,23
DA:131,23
DA:133,23
DA:135,23
DA:136,23
LF:82
LH:62
end_of_record
TN:
SF:/home/egor/CppSolyanka/src/client/client.hpp
FN:14,_ZN4core6clientD0Ev
FN:14,_ZN4core6clientD2Ev
FNDA:0,_ZN4core6clientD2Ev
FNDA:0,_ZN4core6clientD0Ev
FNF:2
FNH:0
DA:14,0
LF:1
LH:0
end_of_record
TN:
SF:/home/egor/CppSolyanka/src/objects/commands.hpp
FN:11,_ZNK4core7commandcvN8nlohmann10basic_jsonISt3mapSt6vectorNSt7__cxx1112basic_stringIcSt11char_traitsIcESaIcEEEblmdSaNS1_14adl_serializerES4_IhSaIhEEEEEv
FNDA:73,_ZNK4core7commandcvN8nlohmann10basic_jsonISt3mapSt6vectorNSt7__cxx1112basic_stringIcSt11char_traitsIcESaIcEEEblmdSaNS1_14adl_serializerES4_IhSaIhEEEEEv
FNF:1
FNH:1
DA:11,949
LF:1
LH:1
end_of_record
TN:
SF:/home/egor/CppSolyanka/src/objects/finance.hpp
FN:20,_ZNK4core12bank_accountcvN8nlohmann10basic_jsonISt3mapSt6vectorNSt7__cxx1112basic_stringIcSt11char_traitsIcESaIcEEEblmdSaNS1_14adl_serializerES4_IhSaIhEEEEEv
FN:22,_ZN4core12bank_accountC2Ev
FN:37,_ZNK4core4cardcvN8nlohmann10basic_jsonISt3mapSt6vectorNSt7__cxx1112basic_stringIcSt11char_traitsIcESaIcEEEblmdSaNS1_14adl_serializerES4_IhSaIhEEEEEv
FN:39,_ZN4core4cardC2Ev
FNDA:61,_ZNK4core12bank_accountcvN8nlohmann10basic_jsonISt3mapSt6vectorNSt7__cxx1112basic_stringIcSt11char_traitsIcESaIcEEEblmdSaNS1_14adl_serializerES4_IhSaIhEEEEEv
FNDA:23,_ZNK4core4cardcvN8nlohmann10basic_jsonISt3mapSt6vectorNSt7__cxx1112basic_stringIcSt11char_traitsIcESaIcEEEblmdSaNS1_14adl_serializerES4_IhSaIhEEEEEv
FNDA:66,_ZN4core12bank_accountC2Ev
FNDA:66,_ZN4core4cardC2Ev
FNF:4
FNH:4
DA:20,610
DA:22,66
DA:37,161
DA:39,66
LF:4
LH:4
end_of_record
TN:
SF:/home/egor/CppSolyanka/src/objects/msg_objects.hpp
FN:11,_ZNK4core3msgcvN8nlohmann10basic_jsonISt3mapSt6vectorNSt7__cxx1112basic_stringIcSt11char_traitsIcESaIcEEEblmdSaNS1_14adl_serializerES4_IhSaIhEEEEEv
FN:14,_ZN4core3msgD2Ev
FN:29,_ZNK4core9error_msgcvN8nlohmann10basic_jsonISt3mapSt6vectorNSt7__cxx1112basic_stringIcSt11char_traitsIcESaIcEEEblmdSaNS1_14adl_serializerES4_IhSaIhEEEEEv
FN:30,_ZN4core9error_msgC2Ev
FN:32,_ZN4core9error_msgD2Ev
FN:41,_ZNK4core18success_result_msgcvN8nlohmann10basic_jsonISt3mapSt6vectorNSt7__cxx1112basic_stringIcSt11char_traitsIcESaIcEEEblmdSaNS1_14adl_serializerES4_IhSaIhEEEEEv
FN:42,_ZN4core18success_result_msgC2Ev
FN:44,_ZN4core18success_result_msgD2Ev
FNDA:109,_ZNK4core18success_result_msgcvN8nlohmann10basic_jsonISt3mapSt6vectorNSt7__cxx1112basic_stringIcSt11char_traitsIcESaIcEEEblmdSaNS1_14adl_serializerES4_IhSaIhEEEEEv
FNDA:385,_ZN4core9error_msgD2Ev
FNDA:0,_ZN4core3msgD2Ev
FNDA:182,_ZN4core18success_result_msgD2Ev
FNDA:34,_ZNK4core3msgcvN8nlohmann10basic_jsonISt3mapSt6vectorNSt7__cxx1112basic_stringIcSt11char_traitsIcESaIcEEEblmdSaNS1_14adl_serializerES4_IhSaIhEEEEEv
FNDA:0,_ZN4core18success_result_msgC2Ev
FNDA:215,_ZNK4core9error_msgcvN8nlohmann10basic_jsonISt3mapSt6vectorNSt7__cxx1112basic_stringIcSt11char_traitsIcESaIcEEEblmdSaNS1_14adl_serializerES4_IhSaIhEEEEEv
FNDA:22,_ZN4core9error_msgC2Ev
FNF:8
FNH:6
DA:11,340
DA:14,0
DA:29,2150
DA:30,22
DA:32,385
DA:41,1090
DA:42,0
DA:44,182
LF:8
LH:6
end_of_record
TN:
SF:/home/egor/CppSolyanka/src/objects/user.hpp
FN:12,_ZNK4core4usercvN8nlohmann10basic_jsonISt3mapSt6vectorNSt7__cxx1112basic_stringIcSt11char_traitsIcESaIcEEEblmdSaNS1_14adl_serializerES4_IhSaIhEEEEEv
FN:15,_ZN4core4userC2Ev
FNDA:228,_ZN4core4userC2Ev
FNDA:39,_ZNK4core4usercvN8nlohmann10basic_jsonISt3mapSt6vectorNSt7__cxx1112basic_stringIcSt11char_traitsIcESaIcEEEblmdSaNS1_14adl_serializerES4_IhSaIhEEEEEv
FNF:2
FNH:2
DA:12,156
DA:13,195
DA:14,1092
DA:15,228
LF:4
LH:4
end_of_record
TN:
SF:/home/egor/CppSolyanka/src/server/app.cpp
FN:9,_ZN4core3appC2ERN5boost4asio10io_contextE
FNDA:284,_ZN4core3appC2ERN5boost4asio10io_contextE
FNF:1
FNH:1
DA:9,284
DA:10,284
DA:11,284
DA:12,284
DA:14,284
DA:15,284
DA:16,284
LF:7
LH:7
end_of_record
TN:
SF:/home/egor/CppSolyanka/src/server/app.hpp
FN:15,_ZN4core3appD2Ev
FN:15,_ZN4core3appD0Ev
FN:17,_ZN4core3app11get_serviceEv
FN:18,_ZN4core3app9get_stateEv
FNDA:0,_ZN4core3appD2Ev
FNDA:0,_ZN4core3appD0Ev
FNDA:0,_ZN4core3app9get_stateEv
FNDA:0,_ZN4core3app11get_serviceEv
FNF:4
FNH:0
DA:15,0
DA:17,0
DA:18,0
LF:3
LH:0
end_of_record
TN:
SF:/home/egor/CppSolyanka/src/server/connect.cpp
FN:11,_ZN3net11con_handlerC2ERN5boost4asio10io_contextE
FN:15,_ZN3net11con_handler10get_socketEv
FN:20,_ZN3net11con_handler10get_adressB5cxx11Ev
FN:26,_ZN3net11con_handler12on_msg_readyEv
FN:36,_ZN3net11con_handler9say_helloEv
FN:43,_ZN3net11con_handler12read_messageEv
FN:50,_ZZN3net11con_handler12read_messageEvENKUlRKN5boost6system10error_codeEmE_clES5_m
FN:60,_ZN3net11con_handler14accept_messageEv
FN:64,_ZZN3net11con_handler14accept_messageEvENKUlRKN5boost6system10error_codeEmE_clES5_m
FN:68,_ZZZN3net11con_handler14accept_messageEvENKUlRKN5boost6system10error_codeEmE_clES5_mENKUlvE_clEv
FN:79,_ZN3net11con_handler5startEv
FN:85,_ZN3net11con_handler4sendERKNSt7__cxx1112basic_stringIcSt11char_traitsIcESaIcEEE
FN:99,_ZN3net11con_handler12handle_writeERKN5boost6system10error_codeEm
FN:108,_ZN3net11con_handler6createERN5boost4asio10io_contextE
FN:113,_ZN3net11con_handler4dropEv
FNDA:76,_ZZN3net11con_handler14accept_messageEvENKUlRKN5boost6system10error_codeEmE_clES5_m
FNDA:308,_ZN3net11con_handlerC2ERN5boost4asio10io_contextE
FNDA:52,_ZZZN3net11con_handler14accept_messageEvENKUlRKN5boost6system10error_codeEmE_clES5_mENKUlvE_clEv
FNDA:52,_ZN3net11con_handler12on_msg_readyEv
FNDA:52,_ZZN3net11con_handler12read_messageEvENKUlRKN5boost6system10error_codeEmE_clES5_m
FNDA:76,_ZN3net11con_handler4sendERKNSt7__cxx1112basic_stringIcSt11char_traitsIcESaIcEEE
FNDA:308,_ZN3net11con_handler6createERN5boost4asio10io_contextE
FNDA:24,_ZN3net11con_handler5startEv
FNDA:52,_ZN3net11con_handler12read_messageEv
FNDA:24,_ZN3net11con_handler9say_helloEv
FNDA:76,_ZN3net11con_handler14accept_messageEv
FNDA:76,_ZN3net11con_handler12handle_writeERKN5boost6system10error_codeEm
FNDA:24,_ZN3net11con_handler10get_adressB5cxx11Ev
FNDA:0,_ZN3net11con_handler4dropEv
FNDA:308,_ZN3net11con_handler10get_socketEv
FNF:15
FNH:14
DA:11,308
DA:12,308
DA:13,308
DA:15,308
DA:17,308
DA:20,24
DA:22,24
DA:23,48
DA:26,52
DA:28,52
DA:29,52
DA:30,52
DA:32,52
DA:33,52
DA:34,52
DA:36,24
DA:38,48
DA:39,24
DA:40,24
DA:41,24
DA:43,52
DA:45,52
DA:46,26
DA:48,52
DA:49,52
DA:50,52
DA:52,52
DA:53,0
DA:55,52
DA:56,52
DA:57,52
DA:58,52
DA:60,76
DA:62,152
DA:63,152
DA:64,76
DA:65,76
DA:67,52
DA:68,52
DA:69,52
DA:70,52
DA:74,24
DA:76,76
DA:77,76
DA:79,24
DA:81,24
DA:82,24
DA:83,24
DA:85,76
DA:87,76
DA:88,76
DA:89,76
DA:91,76
DA:92,76
DA:93,152
DA:94,152
DA:97,76
DA:99,76
DA:101,76
DA:103,0
DA:104,0
DA:106,76
DA:108,308
DA:110,308
DA:113,0
DA:115,0
DA:116,0
LF:67
LH:61
end_of_record
TN:
SF:/home/egor/CppSolyanka/src/server/connect.hpp
FN:17,_ZN3net11con_handlerD2Ev
FNDA:308,_ZN3net11con_handlerD2Ev
FNF:1
FNH:1
DA:17,308
LF:1
LH:1
end_of_record
TN:
SF:/home/egor/CppSolyanka/src/server/database/database.cpp
FN:11,_ZN2db8databaseC2Ev
FN:17,_ZN2db8database12get_instanceEv
FN:25,_ZN2db8database9select_dbERKNS0_7db_listE
FN:30,_ZN2db8database5writeERKNS0_7db_listERKNSt7__cxx1112basic_stringIcSt11char_traitsIcESaIcEEESB_
FN:38,_ZN2db8database4readERKNS0_7db_listERKNSt7__cxx1112basic_stringIcSt11char_traitsIcESaIcEEE
FN:45,_ZZN2db8database4readERKNS0_7db_listERKNSt7__cxx1112basic_stringIcSt11char_traitsIcESaIcEEEENKUlRKN9cpp_redis5replyEE_clESF_
FN:55,_ZN2db8database15clear_databasesEv
FN:60,_ZZN2db8database15clear_databasesEvENKUlRN9cpp_redis5replyEE_clES3_
FNDA:327,_ZN2db8database5writeERKNS0_7db_listERKNSt7__cxx1112basic_stringIcSt11char_traitsIcESaIcEEESB_
FNDA:1328,_ZN2db8database4readERKNS0_7db_listERKNSt7__cxx1112basic_stringIcSt11char_traitsIcESaIcEEE
FNDA:1963,_ZN2db8database12get_instanceEv
FNDA:24,_ZN2db8database15clear_databasesEv
FNDA:24,_ZN2db8databaseC2Ev
FNDA:1655,_ZN2db8database9select_dbERKNS0_7db_listE
FNDA:24,_ZZN2db8database15clear_databasesEvENKUlRN9cpp_redis5replyEE_clES3_
FNDA:1328,_ZZN2db8database4readERKNS0_7db_listERKNSt7__cxx1112basic_stringIcSt11char_traitsIcESaIcEEEENKUlRKN9cpp_redis5replyEE_clESF_
FNF:8
FNH:8
DA:11,24
DA:13,24
DA:14,24
DA:15,24
DA:17,1963
DA:19,1963
DA:20,1963
DA:21,24
DA:22,1963
DA:23,1963
DA:25,1655
DA:27,1655
DA:28,1655
DA:30,327
DA:32,327
DA:33,327
DA:34,327
DA:35,327
DA:36,327
DA:38,1328
DA:40,1328
DA:41,1328
DA:42,1328
DA:44,1328
DA:45,1328
DA:46,1328
DA:47,181
DA:49,1147
DA:50,1328
DA:51,1328
DA:52,2656
DA:53,1328
DA:55,24
DA:57,24
DA:60,24
DA:61,24
DA:62,24
DA:63,24
DA:64,24
DA:66,24
DA:67,24
LF:41
LH:41
end_of_record
TN:
SF:/home/egor/CppSolyanka/src/server/hub.cpp
FN:13,_ZN4core3hubC2ERNS_3appE
FN:20,_ZN4core3hubC2ERNS_3appEb
FN:22,_ZN4core3hub19subscribe_on_serverEv
FN:27,_ZN4core3hub17on_new_connectionESt10shared_ptrIN3net11con_handlerEE
FN:32,_ZN4core3hub23subscribe_on_connectionESt10shared_ptrIN3net11con_handlerEE
FN:37,_ZN4core3hub10on_new_msgESt10shared_ptrIN3net11con_handlerEENS_7commandE
FN:106,_ZN4core3hub8get_userERKNSt7__cxx1112basic_stringIcSt11char_traitsIcESaIcEEE
FN:119,_ZN4core3hub11get_balanceB5cxx11ERNS_4userEm
FN:127,_ZN4core3hub9get_cardsB5cxx11ERNS_4userE
FN:138,_ZN4core3hub17get_bank_accountsB5cxx11ERNS_4userE
FN:149,_ZN4core3hub12handle_loginERNS_7commandE
FN:186,_ZN4core3hub18handle_create_userERNS_7commandE
FN:218,_ZN4core3hub22handle_create_bank_accERNS_7commandE
FN:263,_ZN4core3hub20handle_get_bank_infoERNS_7commandE
FN:350,_ZN4core3hub21handle_change_balanceERNS_7commandE
FN:394,_ZN4core3hub18handle_create_cardERNS_7commandE
FN:429,_ZN4core3hub16handler_get_infoERNS_7commandE
FNDA:11,_ZN4core3hub23subscribe_on_connectionESt10shared_ptrIN3net11con_handlerEE
FNDA:139,_ZN4core3hubC2ERNS_3appE
FNDA:62,_ZN4core3hub18handle_create_userERNS_7commandE
FNDA:9,_ZN4core3hub9get_cardsB5cxx11ERNS_4userE
FNDA:8,_ZN4core3hub17get_bank_accountsB5cxx11ERNS_4userE
FNDA:42,_ZN4core3hub22handle_create_bank_accERNS_7commandE
FNDA:72,_ZN4core3hub21handle_change_balanceERNS_7commandE
FNDA:0,_ZN4core3hub8get_userERKNSt7__cxx1112basic_stringIcSt11char_traitsIcESaIcEEE
FNDA:28,_ZN4core3hub20handle_get_bank_infoERNS_7commandE
FNDA:6,_ZN4core3hub16handler_get_infoERNS_7commandE
FNDA:128,_ZN4core3hubC2ERNS_3appEb
FNDA:11,_ZN4core3hub17on_new_connectionESt10shared_ptrIN3net11con_handlerEE
FNDA:22,_ZN4core3hub10on_new_msgESt10shared_ptrIN3net11con_handlerEENS_7commandE
FNDA:42,_ZN4core3hub18handle_create_cardERNS_7commandE
FNDA:11,_ZN4core3hub11get_balanceB5cxx11ERNS_4userEm
FNDA:139,_ZN4core3hub19subscribe_on_serverEv
FNDA:72,_ZN4core3hub12handle_loginERNS_7commandE
FNF:17
FNH:16
DA:13,278
DA:14,139
DA:16,139
DA:17,139
DA:18,139
DA:20,128
DA:22,139
DA:24,139
DA:25,139
DA:27,11
DA:29,11
DA:30,11
DA:32,11
DA:34,11
DA:35,11
DA:37,22
DA:39,22
DA:40,22
DA:42,22
DA:44,10
DA:46,10
DA:47,10
DA:49,0
DA:51,0
DA:52,0
DA:54,0
DA:56,0
DA:57,0
DA:59,0
DA:63,0
DA:64,0
DA:66,0
DA:69,0
DA:70,0
DA:72,0
DA:74,0
DA:75,0
DA:77,0
DA:79,0
DA:80,0
DA:82,0
DA:84,0
DA:85,0
DA:86,0
DA:88,0
DA:90,0
DA:91,0
DA:92,0
DA:94,12
DA:96,12
DA:97,12
DA:98,12
DA:101,22
DA:102,44
DA:103,22
DA:104,22
DA:106,0
DA:108,0
DA:109,0
DA:110,0
DA:112,0
DA:113,0
DA:114,0
DA:116,0
DA:117,0
DA:119,11
DA:121,11
DA:122,11
DA:123,0
DA:124,22
DA:127,9
DA:129,9
DA:130,0
DA:132,9
DA:133,18
DA:134,9
DA:135,9
DA:136,9
DA:138,8
DA:140,8
DA:141,0
DA:143,8
DA:144,16
DA:145,8
DA:146,8
DA:147,8
DA:149,72
DA:151,72
DA:153,72
DA:155,11
DA:156,11
DA:159,61
DA:161,10
DA:162,10
DA:165,51
DA:166,51
DA:168,10
DA:169,10
DA:172,41
DA:173,41
DA:175,20
DA:179,21
DA:180,21
DA:183,41
DA:184,72
DA:186,62
DA:188,62
DA:190,62
DA:192,20
DA:193,20
DA:196,42
DA:198,10
DA:199,10
DA:202,128
DA:204,10
DA:205,10
DA:208,22
DA:209,22
DA:210,22
DA:211,11
DA:213,11
DA:215,22
DA:216,62
DA:218,42
DA:220,42
DA:222,42
DA:224,11
DA:225,11
DA:228,31
DA:230,10
DA:231,10
DA:236,21
DA:237,21
DA:239,10
DA:240,10
DA:243,11
DA:245,0
DA:246,0
DA:249,11
DA:250,0
DA:252,11
DA:253,21
DA:254,0
DA:256,0
DA:257,0
DA:258,0
DA:259,0
DA:260,11
DA:261,42
DA:263,28
DA:265,28
DA:267,28
DA:269,11
DA:271,11
DA:273,0
DA:274,0
DA:276,11
DA:278,17
DA:281,17
DA:283,0
DA:284,0
DA:286,17
DA:288,0
DA:289,0
DA:292,28
DA:294,0
DA:295,0
DA:298,28
DA:300,0
DA:301,0
DA:306,28
DA:307,28
DA:309,0
DA:310,0
DA:312,28
DA:314,28
DA:316,11
DA:318,11
DA:319,11
DA:321,9
DA:323,9
DA:324,9
DA:326,8
DA:328,8
DA:329,8
DA:331,0
DA:333,0
DA:334,0
DA:338,28
DA:339,28
DA:340,0
DA:342,0
DA:343,0
DA:344,0
DA:345,0
DA:347,28
DA:348,28
DA:350,72
DA:352,72
DA:354,72
DA:356,11
DA:357,11
DA:360,61
DA:362,10
DA:363,10
DA:366,51
DA:368,0
DA:369,0
DA:372,51
DA:373,51
DA:375,10
DA:376,10
DA:379,41
DA:380,41
DA:382,10
DA:383,10
DA:385,31
DA:386,31
DA:387,10
DA:389,21
DA:391,31
DA:392,72
DA:394,42
DA:396,42
DA:398,42
DA:400,11
DA:401,11
DA:404,31
DA:406,10
DA:407,10
DA:410,21
DA:411,21
DA:413,10
DA:414,10
DA:417,11
DA:419,0
DA:420,0
DA:423,11
DA:424,11
DA:426,11
DA:427,42
DA:429,6
DA:431,6
DA:433,6
DA:435,0
DA:436,0
DA:439,6
DA:440,6
DA:442,0
DA:443,0
DA:446,6
DA:447,6
DA:448,6
DA:449,6
LF:254
LH:180
end_of_record
TN:
SF:/home/egor/CppSolyanka/src/server/hub.hpp
FN:25,_ZN4core3hubD0Ev
FN:25,_ZN4core3hubD2Ev
FNDA:0,_ZN4core3hubD2Ev
FNDA:0,_ZN4core3hubD0Ev
FNF:2
FNH:0
DA:25,0
LF:1
LH:0
end_of_record
TN:
SF:/home/egor/CppSolyanka/src/server/server.cpp
FN:7,_ZN4core6server12start_acceptEv
FN:16,_ZN4core6serverC2ERN5boost4asio10io_contextE
FN:25,_ZN4core6server13handle_acceptESt10shared_ptrIN3net11con_handlerEERKN5boost6system10error_codeE
FNDA:308,_ZN4core6server12start_acceptEv
FNDA:284,_ZN4core6serverC2ERN5boost4asio10io_contextE
FNDA:24,_ZN4core6server13handle_acceptESt10shared_ptrIN3net11con_handlerEERKN5boost6system10error_codeE
FNF:3
FNH:3
DA:7,308
DA:9,308
DA:10,308
DA:12,308
DA:13,616
DA:14,308
DA:16,284
DA:17,284
DA:18,284
DA:20,284
DA:21,284
DA:22,284
DA:23,284
DA:25,24
DA:27,24
DA:29,24
DA:30,24
DA:34,0
DA:37,24
DA:38,24
LF:20
LH:19
end_of_record
TN:
SF:/home/egor/CppSolyanka/src/server/state/state.cpp
FN:15,_ZN4core5stateC2Ev
FN:24,_ZN4core5state10get_new_idERKNS0_15identifier_typeENSt7__cxx1112basic_stringIcSt11char_traitsIcESaIcEEE
FN:48,_ZN4core5state11create_userB5cxx11ERNS_4userE
FN:77,_ZN4core5state19create_bank_accountERNS_4userE
FN:93,_ZN4core5state5loginEmRKNSt7__cxx1112basic_stringIcSt11char_traitsIcESaIcEEE
FN:114,_ZN4core5state11get_balanceEm
FN:127,_ZN4core5state14change_balanceB5cxx11ERNS_7command4typeEmm
FN:162,_ZN4core5state11create_cardERNS_4userEm
FN:174,_ZN4core5state6get_idERKNSt7__cxx1112basic_stringIcSt11char_traitsIcESaIcEEE
FN:191,_ZN4core5state8get_userEm
FN:202,_ZN4core5state16get_bank_accountEm
FN:214,_ZN4core5state8get_cardEm
FN:225,_ZN4core5state9set_valueERKNSt7__cxx1112basic_stringIcSt11char_traitsIcESaIcEEERKNS0_15identifier_typeE
FN:263,_ZN4core5state10set_loginsEv
FN:300,_ZN4core5state5setupEv
FNDA:296,_ZN4core5state8get_userEm
FNDA:110,_ZN4core5state6get_idERKNSt7__cxx1112basic_stringIcSt11char_traitsIcESaIcEEE
FNDA:46,_ZN4core5state11create_userB5cxx11ERNS_4userE
FNDA:53,_ZN4core5state14change_balanceB5cxx11ERNS_7command4typeEmm
FNDA:13,_ZN4core5state11get_balanceEm
FNDA:23,_ZN4core5state11create_cardERNS_4userEm
FNDA:819,_ZN4core5state9set_valueERKNSt7__cxx1112basic_stringIcSt11char_traitsIcESaIcEEERKNS0_15identifier_typeE
FNDA:71,_ZN4core5state5loginEmRKNSt7__cxx1112basic_stringIcSt11char_traitsIcESaIcEEE
FNDA:23,_ZN4core5state19create_bank_accountERNS_4userE
FNDA:66,_ZN4core5state16get_bank_accountEm
FNDA:69,_ZN4core5state10get_new_idERKNS0_15identifier_typeENSt7__cxx1112basic_stringIcSt11char_traitsIcESaIcEEE
FNDA:273,_ZN4core5stateC2Ev
FNDA:273,_ZN4core5state10set_loginsEv
FNDA:66,_ZN4core5state8get_cardEm
FNDA:273,_ZN4core5state5setupEv
FNF:15
FNH:15
DA:15,273
DA:16,273
DA:17,273
DA:18,546
DA:20,273
DA:21,273
DA:22,273
DA:24,69
DA:26,69
DA:29,69
DA:31,23
DA:32,23
DA:33,23
DA:34,23
DA:35,23
DA:36,23
DA:37,23
DA:38,23
DA:39,23
DA:40,0
DA:41,0
DA:44,69
DA:45,69
DA:46,69
DA:48,46
DA:50,69
DA:51,69
DA:52,23
DA:54,23
DA:55,23
DA:57,23
DA:58,23
DA:59,23
DA:62,46
DA:63,23
DA:65,23
DA:67,0
DA:68,0
DA:71,23
DA:72,23
DA:74,23
DA:75,23
DA:77,23
DA:79,23
DA:80,0
DA:82,23
DA:83,23
DA:84,23
DA:86,23
DA:87,23
DA:88,23
DA:90,23
DA:91,23
DA:93,71
DA:95,71
DA:96,16
DA:98,55
DA:99,55
DA:101,55
DA:102,55
DA:103,0
DA:105,55
DA:107,39
DA:108,39
DA:110,55
DA:111,16
DA:112,55
DA:114,13
DA:116,13
DA:117,13
DA:118,0
DA:120,13
DA:121,13
DA:122,0
DA:124,13
DA:125,13
DA:127,53
DA:129,53
DA:130,53
DA:131,0
DA:133,53
DA:134,53
DA:135,0
DA:136,53
DA:138,53
DA:140,23
DA:142,23
DA:143,23
DA:145,30
DA:147,30
DA:148,15
DA:149,15
DA:150,15
DA:152,0
DA:153,0
DA:156,76
DA:157,38
DA:159,38
DA:160,53
DA:162,23
DA:164,23
DA:165,23
DA:167,23
DA:168,23
DA:170,23
DA:171,23
DA:172,23
DA:174,110
DA:176,110
DA:178,126
DA:180,87
DA:181,71
DA:184,39
DA:185,39
DA:186,0
DA:187,39
DA:188,39
DA:191,296
DA:193,296
DA:194,296
DA:195,68
DA:197,228
DA:198,228
DA:199,228
DA:200,296
DA:202,66
DA:204,66
DA:206,66
DA:207,0
DA:209,66
DA:210,66
DA:211,66
DA:212,66
DA:214,66
DA:216,66
DA:217,66
DA:218,0
DA:220,66
DA:221,66
DA:222,66
DA:223,66
DA:225,819
DA:227,819
DA:229,69
DA:231,23
DA:232,23
DA:233,23
DA:234,23
DA:235,23
DA:236,23
DA:237,23
DA:238,23
DA:239,23
DA:240,0
DA:241,0
DA:246,750
DA:248,250
DA:249,250
DA:250,250
DA:251,250
DA:252,250
DA:253,250
DA:254,250
DA:255,250
DA:256,250
DA:257,0
DA:258,0
DA:261,819
DA:263,273
DA:265,546
DA:266,273
DA:268,23
DA:269,23
DA:271,23
DA:272,23
DA:273,23
DA:277,0
DA:279,23
DA:282,250
DA:284,250
DA:286,250
DA:287,250
DA:288,477
DA:289,227
DA:290,227
DA:291,477
DA:292,250
DA:295,0
DA:297,250
DA:298,273
DA:300,273
DA:302,273
DA:303,273
DA:304,273
DA:306,273
DA:307,273
LF:196
LH:175
end_of_record
TN:
SF:/home/egor/CppSolyanka/src/server/utils.hpp
FN:14,_ZN5utils6to_strIN4core18success_result_msgEEENSt7__cxx1112basic_stringIcSt11char_traitsIcESaIcEEERKS8_RKSt6vectorIiSaIiEE
FN:14,_ZN5utils6to_strIN4core9error_msgEEENSt7__cxx1112basic_stringIcSt11char_traitsIcESaIcEEERKS8_RKSt6vectorIiSaIiEE
FN:14,_ZN5utils6to_strIN4core3msgEEENSt7__cxx1112basic_stringIcSt11char_traitsIcESaIcEEERKS8_RKSt6vectorIiSaIiEE
FN:21,_ZN5utils6to_strERKSt13unordered_mapINSt7__cxx1112basic_stringIcSt11char_traitsIcESaIcEEEmSt4hashIS6_ESt8equal_toIS6_ESaISt4pairIKS6_mEEE
FN:33,_ZN5utils9is_numberERKNSt7__cxx1112basic_stringIcSt11char_traitsIcESaIcEEE
FN:35,_ZZN5utils9is_numberERKNSt7__cxx1112basic_stringIcSt11char_traitsIcESaIcEEEENKUlhE_clEh
FN:38,_ZN5utils12is_valid_strERKNSt7__cxx1112basic_stringIcSt11char_traitsIcESaIcEEES7_
FN:44,_ZN5utils15validate_paramsERKSt6vectorINSt7__cxx1112basic_stringIcSt11char_traitsIcESaIcEEESaIS6_EERKm
FN:51,_ZN5utils15validate_paramsERKSt6vectorINSt7__cxx1112basic_stringIcSt11char_traitsIcESaIcEEESaIS6_EERKS6_
FNDA:46,_ZN5utils6to_strERKSt13unordered_mapINSt7__cxx1112basic_stringIcSt11char_traitsIcESaIcEEEmSt4hashIS6_ESt8equal_toIS6_ESaISt4pairIKS6_mEEE
FNDA:324,_ZN5utils15validate_paramsERKSt6vectorINSt7__cxx1112basic_stringIcSt11char_traitsIcESaIcEEESaIS6_EERKm
FNDA:150,_ZZN5utils9is_numberERKNSt7__cxx1112basic_stringIcSt11char_traitsIcESaIcEEEENKUlhE_clEh
FNDA:109,_ZN5utils6to_strIN4core18success_result_msgEEENSt7__cxx1112basic_stringIcSt11char_traitsIcESaIcEEERKS8_RKSt6vectorIiSaIiEE
FNDA:255,_ZN5utils15validate_paramsERKSt6vectorINSt7__cxx1112basic_stringIcSt11char_traitsIcESaIcEEESaIS6_EERKS6_
FNDA:215,_ZN5utils6to_strIN4core9error_msgEEENSt7__cxx1112basic_stringIcSt11char_traitsIcESaIcEEERKS8_RKSt6vectorIiSaIiEE
FNDA:12,_ZN5utils6to_strIN4core3msgEEENSt7__cxx1112basic_stringIcSt11char_traitsIcESaIcEEERKS8_RKSt6vectorIiSaIiEE
FNDA:737,_ZN5utils12is_valid_strERKNSt7__cxx1112basic_stringIcSt11char_traitsIcESaIcEEES7_
FNDA:110,_ZN5utils9is_numberERKNSt7__cxx1112basic_stringIcSt11char_traitsIcESaIcEEE
FNF:9
FNH:9
DA:14,336
DA:16,336
DA:17,336
DA:18,672
DA:19,336
DA:21,46
DA:23,46
DA:25,69
DA:27,23
DA:30,92
DA:31,46
DA:33,110
DA:35,260
DA:38,737
DA:40,737
DA:41,1474
DA:42,737
DA:44,324
DA:46,324
DA:47,64
DA:48,260
DA:51,255
DA:53,942
DA:55,737
DA:56,50
DA:58,205
LF:26
LH:26
end_of_record
